; ModuleID = '28/1931.c'
source_filename = "28/1931.c"
target datalayout = "e-m:e-p270:32:32-p271:32:32-p272:64:64-i64:64-f80:128-n8:16:32:64-S128"
target triple = "x86_64-pc-linux-gnu"

@.str = private unnamed_addr constant [3 x i8] c"%d\00", align 1
@.str.1 = private unnamed_addr constant [4 x i8] c"%d,\00", align 1

; Function Attrs: noinline nounwind uwtable
define dso_local i32 @main() #0 {
  %1 = alloca i32, align 4
  %2 = alloca i32, align 4
  %3 = alloca i32, align 4
  %4 = alloca i32, align 4
  %5 = alloca [1500 x i8], align 16
  %6 = alloca [1500 x i32], align 16
  %7 = alloca [1500 x i32], align 16
  store i32 0, i32* %1, align 4
  store i32 0, i32* %4, align 4
  %8 = getelementptr inbounds [1500 x i8], [1500 x i8]* %5, i64 0, i64 0
  %9 = call i32 (i8*, ...) bitcast (i32 (...)* @gets to i32 (i8*, ...)*)(i8* %8)
  %10 = getelementptr inbounds [1500 x i8], [1500 x i8]* %5, i64 0, i64 0
  %11 = call i64 @strlen(i8* %10) #3
  %12 = trunc i64 %11 to i32
  store i32 %12, i32* %2, align 4
  store i32 0, i32* %3, align 4
  br label %13

13:                                               ; preds = %32, %0
  %14 = load i32, i32* %3, align 4
  %15 = load i32, i32* %2, align 4
  %16 = icmp slt i32 %14, %15
  br i1 %16, label %17, label %35

17:                                               ; preds = %13
  %18 = load i32, i32* %3, align 4
  %19 = sext i32 %18 to i64
  %20 = getelementptr inbounds [1500 x i8], [1500 x i8]* %5, i64 0, i64 %19
  %21 = load i8, i8* %20, align 1
  %22 = sext i8 %21 to i32
  %23 = icmp eq i32 %22, 32
  br i1 %23, label %24, label %31

24:                                               ; preds = %17
  %25 = load i32, i32* %3, align 4
  %26 = load i32, i32* %4, align 4
  %27 = sext i32 %26 to i64
  %28 = getelementptr inbounds [1500 x i32], [1500 x i32]* %6, i64 0, i64 %27
  store i32 %25, i32* %28, align 4
  %29 = load i32, i32* %4, align 4
  %30 = add nsw i32 %29, 1
  store i32 %30, i32* %4, align 4
  br label %31

31:                                               ; preds = %24, %17
  br label %32

32:                                               ; preds = %31
  %33 = load i32, i32* %3, align 4
  %34 = add nsw i32 %33, 1
  store i32 %34, i32* %3, align 4
  br label %13

35:                                               ; preds = %13
  %36 = load i32, i32* %4, align 4
  %37 = icmp ne i32 %36, 0
  br i1 %37, label %38, label %129

38:                                               ; preds = %35
  store i32 0, i32* %3, align 4
  br label %39

39:                                               ; preds = %67, %38
  %40 = load i32, i32* %3, align 4
  %41 = load i32, i32* %4, align 4
  %42 = icmp slt i32 %40, %41
  br i1 %42, label %43, label %70

43:                                               ; preds = %39
  %44 = load i32, i32* %3, align 4
  %45 = icmp eq i32 %44, 0
  br i1 %45, label %46, label %52

46:                                               ; preds = %43
  %47 = getelementptr inbounds [1500 x i32], [1500 x i32]* %6, i64 0, i64 0
  %48 = load i32, i32* %47, align 16
  %49 = load i32, i32* %3, align 4
  %50 = sext i32 %49 to i64
  %51 = getelementptr inbounds [1500 x i32], [1500 x i32]* %7, i64 0, i64 %50
  store i32 %48, i32* %51, align 4
  br label %66

52:                                               ; preds = %43
  %53 = load i32, i32* %3, align 4
  %54 = sext i32 %53 to i64
  %55 = getelementptr inbounds [1500 x i32], [1500 x i32]* %6, i64 0, i64 %54
  %56 = load i32, i32* %55, align 4
  %57 = load i32, i32* %3, align 4
  %58 = sub nsw i32 %57, 1
  %59 = sext i32 %58 to i64
  %60 = getelementptr inbounds [1500 x i32], [1500 x i32]* %6, i64 0, i64 %59
  %61 = load i32, i32* %60, align 4
  %62 = sub nsw i32 %56, %61
  %63 = load i32, i32* %3, align 4
  %64 = sext i32 %63 to i64
  %65 = getelementptr inbounds [1500 x i32], [1500 x i32]* %7, i64 0, i64 %64
  store i32 %62, i32* %65, align 4
  br label %66

66:                                               ; preds = %52, %46
  br label %67

67:                                               ; preds = %66
  %68 = load i32, i32* %3, align 4
  %69 = add nsw i32 %68, 1
  store i32 %69, i32* %3, align 4
  br label %39

70:                                               ; preds = %39
  %71 = load i32, i32* %2, align 4
  %72 = sub nsw i32 %71, 1
  %73 = load i32, i32* %4, align 4
  %74 = sub nsw i32 %73, 1
  %75 = sext i32 %74 to i64
  %76 = getelementptr inbounds [1500 x i32], [1500 x i32]* %6, i64 0, i64 %75
  %77 = load i32, i32* %76, align 4
  %78 = sub nsw i32 %72, %77
  %79 = load i32, i32* %4, align 4
  %80 = sext i32 %79 to i64
  %81 = getelementptr inbounds [1500 x i32], [1500 x i32]* %7, i64 0, i64 %80
  store i32 %78, i32* %81, align 4
  store i32 0, i32* %3, align 4
  br label %82

82:                                               ; preds = %125, %70
  %83 = load i32, i32* %3, align 4
  %84 = load i32, i32* %4, align 4
  %85 = icmp sle i32 %83, %84
  br i1 %85, label %86, label %128

86:                                               ; preds = %82
  %87 = load i32, i32* %3, align 4
  %88 = sext i32 %87 to i64
  %89 = getelementptr inbounds [1500 x i32], [1500 x i32]* %7, i64 0, i64 %88
  %90 = load i32, i32* %89, align 4
  %91 = icmp eq i32 %90, 1
  br i1 %91, label %92, label %96

92:                                               ; preds = %86
  %93 = load i32, i32* %3, align 4
  %94 = icmp ne i32 %93, 0
  br i1 %94, label %95, label %96

95:                                               ; preds = %92
  br label %125

96:                                               ; preds = %92, %86
  %97 = load i32, i32* %3, align 4
  %98 = load i32, i32* %4, align 4
  %99 = icmp eq i32 %97, %98
  br i1 %99, label %100, label %106

100:                                              ; preds = %96
  %101 = load i32, i32* %3, align 4
  %102 = sext i32 %101 to i64
  %103 = getelementptr inbounds [1500 x i32], [1500 x i32]* %7, i64 0, i64 %102
  %104 = load i32, i32* %103, align 4
  %105 = call i32 (i8*, ...) @printf(i8* getelementptr inbounds ([3 x i8], [3 x i8]* @.str, i64 0, i64 0), i32 %104)
  br label %123

106:                                              ; preds = %96
  %107 = load i32, i32* %3, align 4
  %108 = icmp eq i32 %107, 0
  br i1 %108, label %109, label %115

109:                                              ; preds = %106
  %110 = load i32, i32* %3, align 4
  %111 = sext i32 %110 to i64
  %112 = getelementptr inbounds [1500 x i32], [1500 x i32]* %7, i64 0, i64 %111
  %113 = load i32, i32* %112, align 4
  %114 = call i32 (i8*, ...) @printf(i8* getelementptr inbounds ([4 x i8], [4 x i8]* @.str.1, i64 0, i64 0), i32 %113)
  br label %122

115:                                              ; preds = %106
  %116 = load i32, i32* %3, align 4
  %117 = sext i32 %116 to i64
  %118 = getelementptr inbounds [1500 x i32], [1500 x i32]* %7, i64 0, i64 %117
  %119 = load i32, i32* %118, align 4
  %120 = sub nsw i32 %119, 1
  %121 = call i32 (i8*, ...) @printf(i8* getelementptr inbounds ([4 x i8], [4 x i8]* @.str.1, i64 0, i64 0), i32 %120)
  br label %122

122:                                              ; preds = %115, %109
  br label %123

123:                                              ; preds = %122, %100
  br label %124

124:                                              ; preds = %123
  br label %125

125:                                              ; preds = %124, %95
  %126 = load i32, i32* %3, align 4
  %127 = add nsw i32 %126, 1
  store i32 %127, i32* %3, align 4
  br label %82

128:                                              ; preds = %82
  br label %129

129:                                              ; preds = %128, %35
  %130 = load i32, i32* %4, align 4
  %131 = icmp eq i32 %130, 0
  br i1 %131, label %132, label %135

132:                                              ; preds = %129
  %133 = load i32, i32* %2, align 4
  %134 = call i32 (i8*, ...) @printf(i8* getelementptr inbounds ([3 x i8], [3 x i8]* @.str, i64 0, i64 0), i32 %133)
  br label %135

135:                                              ; preds = %132, %129
  ret i32 0
}

declare dso_local i32 @gets(...) #1

; Function Attrs: nounwind readonly
declare dso_local i64 @strlen(i8*) #2

declare dso_local i32 @printf(i8*, ...) #1


!llvm.module.flags = !{!0}
!llvm.ident = !{!1}

!0 = !{i32 1, !"wchar_size", i32 4}
!1 = !{!"clang version 10.0.0-4ubuntu1 "}
